; Function Attrs: null_pointer_is_valid sspstrong uwtable
define internal i32 @dissect_dlep_msg(ptr noundef %0, ptr noundef %1, ptr noundef %2, ptr readnone captures(none) %3) #0 {
  %5 = alloca i32, align 4
  %6 = alloca i32, align 4
  %7 = getelementptr inbounds nuw i8, ptr %1, i64 8
  %8 = load ptr, ptr %7, align 8
  tail call void @col_set_str(ptr noundef %8, i32 noundef 35, ptr noundef nonnull @.str.128)
  %9 = load ptr, ptr %7, align 8
  tail call void @col_clear(ptr noundef %9, i32 noundef 25)
  %10 = load i32, ptr @proto_dlep, align 4
  %11 = tail call ptr @proto_tree_add_item(ptr noundef %2, i32 noundef %10, ptr noundef %0, i32 noundef 0, i32 noundef -1, i32 noundef 0)
  %12 = load i32, ptr @ett_dlep, align 4
  %13 = tail call ptr @proto_item_add_subtree(ptr noundef %11, i32 noundef %12)
  call void @llvm.lifetime.start.p0(i64 4, ptr nonnull %5) #5
  call void @llvm.lifetime.start.p0(i64 4, ptr nonnull %6) #5
  %14 = load i32, ptr @hf_dlep_message, align 4
  %15 = tail call ptr @proto_tree_add_item(ptr noundef %13, i32 noundef %14, ptr noundef %0, i32 noundef 0, i32 noundef 0, i32 noundef 0)
  %.not.i.i = icmp eq ptr %15, null
  br i1 %.not.i.i, label %proto_item_set_hidden.exit.i, label %16

16:                                               ; preds = %4
  %17 = getelementptr inbounds nuw i8, ptr %15, i64 40
  %18 = load ptr, ptr %17, align 8
  %.not5.i.i = icmp eq ptr %18, null
  br i1 %.not5.i.i, label %proto_item_set_hidden.exit.i, label %19

19:                                               ; preds = %16
  %20 = getelementptr inbounds nuw i8, ptr %18, i64 28
  %21 = load i32, ptr %20, align 4
  %22 = or i32 %21, 1
  store i32 %22, ptr %20, align 4
  br label %proto_item_set_hidden.exit.i

proto_item_set_hidden.exit.i:                     ; preds = %19, %16, %4
  %23 = load i32, ptr @hf_dlep_message_type, align 4
  %24 = call ptr @proto_tree_add_item_ret_uint(ptr noundef %13, i32 noundef %23, ptr noundef %0, i32 noundef 0, i32 noundef 2, i32 noundef 0, ptr noundef nonnull %5)
  %25 = load i32, ptr %5, align 4
  %26 = call ptr @val_to_str_const(i32 noundef %25, ptr noundef nonnull @message_type_vals, ptr noundef nonnull @.str.200)
  %27 = load i32, ptr %5, align 4
  call void (ptr, ptr, ...) @proto_item_append_text(ptr noundef %11, ptr noundef nonnull @.str.199, ptr noundef %26, i32 noundef %27)
  %28 = load ptr, ptr %7, align 8
  %29 = load i32, ptr %5, align 4
  %30 = call ptr @val_to_str_const(i32 noundef %29, ptr noundef nonnull @message_type_vals, ptr noundef nonnull @.str.200)
  %31 = load i32, ptr %5, align 4
  call void (ptr, i32, ptr, ...) @col_add_fstr(ptr noundef %28, i32 noundef 25, ptr noundef nonnull @.str.201, ptr noundef %30, i32 noundef %31)
  %32 = load i32, ptr @hf_dlep_message_length, align 4
  %33 = call ptr @proto_tree_add_item_ret_uint(ptr noundef %13, i32 noundef %32, ptr noundef %0, i32 noundef 2, i32 noundef 2, i32 noundef 0, ptr noundef nonnull %6)
  %34 = load i32, ptr %6, align 4
  %35 = call i32 @tvb_reported_length_remaining(ptr noundef %0, i32 noundef 4)
  %.not.i = icmp eq i32 %34, %35
  br i1 %.not.i, label %decode_message_header.exit, label %36

36:                                               ; preds = %proto_item_set_hidden.exit.i
  %37 = call ptr @expert_add_info(ptr noundef %1, ptr noundef %33, ptr noundef nonnull @ei_dlep_message_unexpected_length)
  br label %decode_message_header.exit

decode_message_header.exit:                       ; preds = %proto_item_set_hidden.exit.i, %36
  call void @llvm.lifetime.end.p0(i64 4, ptr nonnull %6) #5
  call void @llvm.lifetime.end.p0(i64 4, ptr nonnull %5) #5
  %38 = call i32 @tvb_reported_length_remaining(ptr noundef %0, i32 noundef 4)
  %39 = icmp sgt i32 %38, 0
  br i1 %39, label %.lr.ph, label %._crit_edge

.lr.ph:                                           ; preds = %decode_message_header.exit, %.lr.ph
  %.016 = phi i32 [ %40, %.lr.ph ], [ 4, %decode_message_header.exit ]
  %40 = call fastcc i32 @decode_dataitem(ptr noundef %0, i32 noundef %.016, ptr noundef %13, ptr noundef %1)
  %41 = call i32 @tvb_reported_length_remaining(ptr noundef %0, i32 noundef %40)
  %42 = icmp sgt i32 %41, 0
  br i1 %42, label %.lr.ph, label %._crit_edge, !llvm.loop !11

._crit_edge:                                      ; preds = %.lr.ph, %decode_message_header.exit
  %43 = call i32 @tvb_captured_length(ptr noundef %0)
  ret i32 %43
}